; Function Attrs: nounwind uwtable
define range(i32 -2, 1) i32 @arkLSSetUserData(ptr noundef %0, ptr noundef %1) local_unnamed_addr #0 {
  %3 = getelementptr inbounds nuw i8, ptr %0, i64 320
  %4 = load ptr, ptr %3, align 8, !tbaa !33
  %5 = tail call ptr %4(ptr noundef %0) #13
  %6 = icmp eq ptr %5, null
  br i1 %6, label %arkLs_AccessLMem.exit, label %7

arkLs_AccessLMem.exit:                            ; preds = %2
  tail call void (ptr, i32, i32, ptr, ptr, ptr, ...) @arkProcessError(ptr noundef nonnull %0, i32 noundef -2, i32 noundef 4072, ptr noundef nonnull @__func__.arkLSSetUserData, ptr noundef nonnull @.str, ptr noundef nonnull @.str.64) #13
  br label %24

7:                                                ; preds = %2
  %8 = getelementptr inbounds nuw i8, ptr %5, i64 8
  %9 = load i32, ptr %8, align 8, !tbaa !42
  %.not8 = icmp eq i32 %9, 0
  br i1 %.not8, label %10, label %12

10:                                               ; preds = %7
  %11 = getelementptr inbounds nuw i8, ptr %5, i64 24
  store ptr %1, ptr %11, align 8, !tbaa !44
  br label %12

12:                                               ; preds = %10, %7
  %13 = getelementptr inbounds nuw i8, ptr %5, i64 240
  %14 = load i32, ptr %13, align 8, !tbaa !45
  %.not9 = icmp eq i32 %14, 0
  br i1 %.not9, label %15, label %17

15:                                               ; preds = %12
  %16 = getelementptr inbounds nuw i8, ptr %5, i64 272
  store ptr %1, ptr %16, align 8, !tbaa !48
  br label %17

17:                                               ; preds = %15, %12
  %18 = getelementptr inbounds nuw i8, ptr %5, i64 280
  %19 = load i32, ptr %18, align 8, !tbaa !50
  %.not10 = icmp eq i32 %19, 0
  br i1 %.not10, label %22, label %20

20:                                               ; preds = %17
  %21 = getelementptr inbounds nuw i8, ptr %5, i64 296
  store ptr %1, ptr %21, align 8, !tbaa !52
  br label %22

22:                                               ; preds = %20, %17
  %23 = getelementptr inbounds nuw i8, ptr %5, i64 232
  store ptr %1, ptr %23, align 8, !tbaa !54
  br label %24

24:                                               ; preds = %arkLs_AccessLMem.exit, %22
  %.0 = phi i32 [ 0, %22 ], [ -2, %arkLs_AccessLMem.exit ]
  ret i32 %.0
}